; Function Attrs: mustprogress nounwind uwtable
define dso_local void @_ZN4llvm18ExecutionDomainFix7releaseEPNS_11DomainValueE(ptr noundef nonnull align 8 dereferenceable(504) %0, ptr noundef %1) local_unnamed_addr #0 align 2 {
  %.not13 = icmp eq ptr %1, null
  br i1 %.not13, label %._crit_edge, label %.lr.ph

.lr.ph:                                           ; preds = %2
  %3 = getelementptr inbounds nuw i8, ptr %0, i64 152
  %4 = getelementptr inbounds nuw i8, ptr %0, i64 168
  br label %5

5:                                                ; preds = %.lr.ph, %_ZN4llvm23SmallVectorTemplateBaseIPNS_11DomainValueELb1EE9push_backES2_.exit
  %.014 = phi ptr [ %1, %.lr.ph ], [ %19, %_ZN4llvm23SmallVectorTemplateBaseIPNS_11DomainValueELb1EE9push_backES2_.exit ]
  %6 = load i32, ptr %.014, align 8
  %7 = add i32 %6, -1
  store i32 %7, ptr %.014, align 8
  %.not11 = icmp eq i32 %7, 0
  br i1 %.not11, label %8, label %._crit_edge

8:                                                ; preds = %5
  %9 = getelementptr inbounds nuw i8, ptr %.014, i64 4
  %10 = load i32, ptr %9, align 4
  %.not12 = icmp eq i32 %10, 0
  br i1 %.not12, label %17, label %11

11:                                               ; preds = %8
  %12 = getelementptr inbounds nuw i8, ptr %.014, i64 16
  %13 = tail call noundef zeroext i1 @_ZNK4llvm15SmallVectorBaseIjE5emptyEv(ptr noundef nonnull align 8 dereferenceable(16) %12) #13
  br i1 %13, label %17, label %14

14:                                               ; preds = %11
  %15 = load i32, ptr %9, align 4
  %16 = tail call noundef range(i32 0, 33) i32 @llvm.cttz.i32(i32 %15, i1 false)
  tail call void @_ZN4llvm18ExecutionDomainFix8collapseEPNS_11DomainValueEj(ptr noundef nonnull align 8 dereferenceable(504) %0, ptr noundef nonnull %.014, i32 noundef %16)
  br label %17

17:                                               ; preds = %14, %11, %8
  %18 = getelementptr inbounds nuw i8, ptr %.014, i64 8
  %19 = load ptr, ptr %18, align 8
  store i32 0, ptr %9, align 4
  store ptr null, ptr %18, align 8
  %20 = getelementptr inbounds nuw i8, ptr %.014, i64 16
  %21 = tail call noundef i64 @_ZNK4llvm15SmallVectorBaseIjE4sizeEv(ptr noundef nonnull align 8 dereferenceable(16) %20) #13
  %22 = getelementptr inbounds nuw i8, ptr %.014, i64 24
  store i32 0, ptr %22, align 8
  %23 = tail call noundef i64 @_ZNK4llvm15SmallVectorBaseIjE4sizeEv(ptr noundef nonnull align 8 dereferenceable(16) %3) #13
  %24 = add i64 %23, 1
  %25 = tail call noundef i64 @_ZNK4llvm15SmallVectorBaseIjE8capacityEv(ptr noundef nonnull align 8 dereferenceable(16) %3) #13
  %.not.i.i.i = icmp ugt i64 %24, %25
  br i1 %.not.i.i.i, label %26, label %_ZN4llvm23SmallVectorTemplateBaseIPNS_11DomainValueELb1EE9push_backES2_.exit

26:                                               ; preds = %17
  tail call void @_ZN4llvm15SmallVectorBaseIjE8grow_podEPvmm(ptr noundef nonnull align 8 dereferenceable(16) %3, ptr noundef nonnull %4, i64 noundef %24, i64 noundef 8) #13
  br label %_ZN4llvm23SmallVectorTemplateBaseIPNS_11DomainValueELb1EE9push_backES2_.exit

_ZN4llvm23SmallVectorTemplateBaseIPNS_11DomainValueELb1EE9push_backES2_.exit: ; preds = %17, %26
  %27 = load ptr, ptr %3, align 8
  %28 = tail call noundef i64 @_ZNK4llvm15SmallVectorBaseIjE4sizeEv(ptr noundef nonnull align 8 dereferenceable(16) %3) #13
  %29 = getelementptr inbounds ptr, ptr %27, i64 %28
  %30 = ptrtoint ptr %.014 to i64
  store i64 %30, ptr %29, align 1
  %31 = tail call noundef i64 @_ZNK4llvm15SmallVectorBaseIjE4sizeEv(ptr noundef nonnull align 8 dereferenceable(16) %3) #13
  %32 = add i64 %31, 1
  tail call void @_ZN4llvm15SmallVectorBaseIjE8set_sizeEm(ptr noundef nonnull align 8 dereferenceable(16) %3, i64 noundef %32) #13
  %.not = icmp eq ptr %19, null
  br i1 %.not, label %._crit_edge, label %5, !llvm.loop !4

._crit_edge:                                      ; preds = %_ZN4llvm23SmallVectorTemplateBaseIPNS_11DomainValueELb1EE9push_backES2_.exit, %5, %2
  ret void
}